target datalayout = "e-m:e-p270:32:32-p271:32:32-p272:64:64-i64:64-i128:128-f80:128-n8:16:32:64-S128"
target triple = "x86_64-pc-linux-gnu"

%"class.datalog::lazy_table_ref" = type { ptr, ptr, %"class.datalog::table_signature", i32, %"class.datalog::scoped_rel" }
%"class.datalog::table_signature" = type <{ %"class.datalog::tr_infrastructure<datalog::table_traits>::signature_base", i32, [4 x i8] }>
%"class.datalog::tr_infrastructure<datalog::table_traits>::signature_base" = type { %class.svector }
%class.svector = type { %class.vector }
%class.vector = type { ptr }
%"class.datalog::scoped_rel" = type { ptr }
%"class.datalog::lazy_table" = type { %"class.datalog::table_base.base", %class.ref }
%"class.datalog::table_base.base" = type { %"class.datalog::tr_infrastructure<datalog::table_traits>::base_ancestor.base" }
%"class.datalog::tr_infrastructure<datalog::table_traits>::base_ancestor.base" = type <{ ptr, ptr, %"class.datalog::table_signature", i32 }>
%class.ref = type { ptr }

; Function Attrs: mustprogress nounwind uwtable
define linkonce_odr hidden noundef ptr @_ZNK7datalog10scoped_relINS_10table_baseEE3getEv(ptr noundef nonnull align 8 dereferenceable(8) %0) #7 comdat align 2 {
  %2 = alloca ptr, align 8
  store ptr %0, ptr %2, align 8, !tbaa !106
  %3 = load ptr, ptr %2, align 8
  %4 = getelementptr inbounds nuw %"class.datalog::scoped_rel", ptr %3, i32 0, i32 0
  %5 = load ptr, ptr %4, align 8, !tbaa !108
  ret ptr %5
}

; Function Attrs: mustprogress uwtable
define linkonce_odr hidden noundef nonnull align 8 dereferenceable(8) ptr @_ZN7datalog10scoped_relINS_10table_baseEEaSEPS1_(ptr noundef nonnull align 8 dereferenceable(8) %0, ptr noundef %1) #4 comdat align 2 {
  %3 = alloca ptr, align 8
  %4 = alloca ptr, align 8
  store ptr %0, ptr %3, align 8, !tbaa !106
  store ptr %1, ptr %4, align 8, !tbaa !37
  %5 = load ptr, ptr %3, align 8
  %6 = getelementptr inbounds nuw %"class.datalog::scoped_rel", ptr %5, i32 0, i32 0
  %7 = load ptr, ptr %6, align 8, !tbaa !108
  %8 = icmp ne ptr %7, null
  br i1 %8, label %9, label %17

9:                                                ; preds = %2
  %10 = load ptr, ptr %4, align 8, !tbaa !37
  %11 = getelementptr inbounds nuw %"class.datalog::scoped_rel", ptr %5, i32 0, i32 0
  %12 = load ptr, ptr %11, align 8, !tbaa !108
  %13 = icmp ne ptr %10, %12
  br i1 %13, label %14, label %17

14:                                               ; preds = %9
  %15 = getelementptr inbounds nuw %"class.datalog::scoped_rel", ptr %5, i32 0, i32 0
  %16 = load ptr, ptr %15, align 8, !tbaa !108
  call void @_ZN7datalog16universal_deleteEPNS_10table_baseE(ptr noundef %16)
  br label %17

17:                                               ; preds = %14, %9, %2
  %18 = load ptr, ptr %4, align 8, !tbaa !37
  %19 = getelementptr inbounds nuw %"class.datalog::scoped_rel", ptr %5, i32 0, i32 0
  store ptr %18, ptr %19, align 8, !tbaa !108
  ret ptr %5
}

; Function Attrs: mustprogress nounwind uwtable
define linkonce_odr hidden noundef zeroext i1 @_ZNK7datalog10scoped_relINS_10table_baseEEcvbEv(ptr noundef nonnull align 8 dereferenceable(8) %0) #7 comdat align 2 {
  %2 = alloca ptr, align 8
  store ptr %0, ptr %2, align 8, !tbaa !106
  %3 = load ptr, ptr %2, align 8
  %4 = getelementptr inbounds nuw %"class.datalog::scoped_rel", ptr %3, i32 0, i32 0
  %5 = load ptr, ptr %4, align 8, !tbaa !108
  %6 = icmp ne ptr %5, null
  ret i1 %6
}

; Function Attrs: mustprogress uwtable
define linkonce_odr hidden noundef ptr @_ZN7datalog14lazy_table_ref4evalEv(ptr noundef nonnull align 8 dereferenceable(48) %0) #4 comdat align 2 {
  %2 = alloca ptr, align 8
  store ptr %0, ptr %2, align 8, !tbaa !41
  %3 = load ptr, ptr %2, align 8
  %4 = getelementptr inbounds nuw %"class.datalog::lazy_table_ref", ptr %3, i32 0, i32 4
  %5 = call noundef zeroext i1 @_ZNK7datalog10scoped_relINS_10table_baseEEcvbEv(ptr noundef nonnull align 8 dereferenceable(8) %4)
  br i1 %5, label %13, label %6

6:                                                ; preds = %1
  %7 = load ptr, ptr %3, align 8, !tbaa !13
  %8 = getelementptr inbounds ptr, ptr %7, i64 0
  %9 = load ptr, ptr %8, align 8
  %10 = call noundef ptr %9(ptr noundef nonnull align 8 dereferenceable(48) %3)
  %11 = getelementptr inbounds nuw %"class.datalog::lazy_table_ref", ptr %3, i32 0, i32 4
  %12 = call noundef nonnull align 8 dereferenceable(8) ptr @_ZN7datalog10scoped_relINS_10table_baseEEaSEPS1_(ptr noundef nonnull align 8 dereferenceable(8) %11, ptr noundef %10)
  br label %13

13:                                               ; preds = %6, %1
  %14 = getelementptr inbounds nuw %"class.datalog::lazy_table_ref", ptr %3, i32 0, i32 4
  %15 = call noundef ptr @_ZNK7datalog10scoped_relINS_10table_baseEE3getEv(ptr noundef nonnull align 8 dereferenceable(8) %14)
  ret ptr %15
}

; Function Attrs: mustprogress nounwind uwtable
define linkonce_odr hidden noundef ptr @_ZNK3refIN7datalog14lazy_table_refEEptEv(ptr noundef nonnull align 8 dereferenceable(8) %0) #7 comdat align 2 {
  %2 = alloca ptr, align 8
  store ptr %0, ptr %2, align 8, !tbaa !85
  %3 = load ptr, ptr %2, align 8
  %4 = getelementptr inbounds nuw %class.ref, ptr %3, i32 0, i32 0
  %5 = load ptr, ptr %4, align 8, !tbaa !87
  ret ptr %5
}

; Function Attrs: mustprogress uwtable
define hidden noundef zeroext i1 @_ZNK7datalog10lazy_table5emptyEv(ptr noundef nonnull align 8 dereferenceable(48) %0) unnamed_addr #4 align 2 {
  %2 = alloca ptr, align 8
  store ptr %0, ptr %2, align 8, !tbaa !39
  %3 = load ptr, ptr %2, align 8
  %4 = getelementptr inbounds nuw %"class.datalog::lazy_table", ptr %3, i32 0, i32 1
  %5 = call noundef ptr @_ZNK3refIN7datalog14lazy_table_refEEptEv(ptr noundef nonnull align 8 dereferenceable(8) %4)
  %6 = call noundef ptr @_ZN7datalog14lazy_table_ref4evalEv(ptr noundef nonnull align 8 dereferenceable(48) %5)
  %7 = load ptr, ptr %6, align 8, !tbaa !13
  %8 = getelementptr inbounds ptr, ptr %7, i64 3
  %9 = load ptr, ptr %8, align 8
  %10 = call noundef zeroext i1 %9(ptr noundef nonnull align 8 dereferenceable(36) %6)
  ret i1 %10
}